target datalayout = "e-m:e-p270:32:32-p271:32:32-p272:64:64-i64:64-i128:128-f80:128-n8:16:32:64-S128"
target triple = "x86_64-pc-linux-gnu"

%struct.AVRational = type { i32, i32 }
%struct.AVCodecContext = type { ptr, i32, i32, ptr, i32, i32, ptr, ptr, ptr, i64, i32, i32, ptr, i32, %struct.AVRational, %struct.AVRational, %struct.AVRational, i32, i32, i32, i32, i32, %struct.AVRational, i32, i32, i32, i32, i32, i32, i32, i32, i32, i32, i32, ptr, ptr, i32, float, float, float, float, float, float, float, float, float, i32, i32, i32, i32, i32, i32, i32, i32, i32, i32, i32, i32, ptr, ptr, ptr, i32, i32, i32, i32, i32, i32, i32, i32, i32, i32, %struct.AVChannelLayout, i32, i32, i32, i32, i32, i32, i32, i32, ptr, i32, i32, i32, float, float, i32, i32, i32, i32, i32, ptr, i64, i64, float, float, i32, i32, ptr, ptr, i32, i32, i32, i32, i32, ptr, ptr, ptr, ptr, i32, i32, [8 x i64], i32, i32, i32, i32, i32, i32, i32, ptr, ptr, i32, i32, i32, i32, i32, i32, i32, i32, i32, i32, ptr, ptr, i32, i32, ptr, ptr, ptr, ptr, i32, i32, i64, i32, i32, i64, ptr, i64, ptr, i32, ptr, i32 }
%struct.AVChannelLayout = type { i32, i32, %union.anon.0, ptr }
%union.anon.0 = type { i64 }
%struct.AVFrame = type { [8 x ptr], [8 x i32], ptr, i32, i32, i32, i32, i32, %struct.AVRational, i64, i64, %struct.AVRational, i32, ptr, i32, i32, [8 x ptr], ptr, i32, ptr, i32, i32, i32, i32, i32, i32, i32, i64, ptr, i32, ptr, ptr, i64, i64, i64, i64, ptr, %struct.AVChannelLayout, i64 }

@.str.2 = private unnamed_addr constant [18 x i8] c"packet too small\0A\00", align 1

; Function Attrs: nounwind uwtable
define internal i32 @dxtory_decode_v1_rgb(ptr noundef %0, ptr noundef %1, ptr noundef %2, i32 noundef %3, i32 noundef %4, i32 noundef %5, i32 noundef %6) #0 {
  %8 = alloca i32, align 4
  %9 = alloca ptr, align 8
  %10 = alloca ptr, align 8
  %11 = alloca ptr, align 8
  %12 = alloca i32, align 4
  %13 = alloca i32, align 4
  %14 = alloca i32, align 4
  %15 = alloca i32, align 4
  %16 = alloca i32, align 4
  %17 = alloca ptr, align 8
  %18 = alloca i32, align 4
  %19 = alloca i32, align 4
  store ptr %0, ptr %9, align 8, !tbaa !4
  store ptr %1, ptr %10, align 8, !tbaa !9
  store ptr %2, ptr %11, align 8, !tbaa !23
  store i32 %3, ptr %12, align 4, !tbaa !26
  store i32 %4, ptr %13, align 4, !tbaa !26
  store i32 %5, ptr %14, align 4, !tbaa !26
  store i32 %6, ptr %15, align 4, !tbaa !26
  call void @llvm.lifetime.start.p0(i64 4, ptr %16) #9
  call void @llvm.lifetime.start.p0(i64 8, ptr %17) #9
  call void @llvm.lifetime.start.p0(i64 4, ptr %18) #9
  %20 = load i32, ptr %12, align 4, !tbaa !26
  %21 = sext i32 %20 to i64
  %22 = load i32, ptr %13, align 4, !tbaa !26
  %23 = load ptr, ptr %9, align 8, !tbaa !4
  %24 = getelementptr inbounds nuw %struct.AVCodecContext, ptr %23, i32 0, i32 18
  %25 = load i32, ptr %24, align 8, !tbaa !27
  %26 = load ptr, ptr %9, align 8, !tbaa !4
  %27 = getelementptr inbounds nuw %struct.AVCodecContext, ptr %26, i32 0, i32 19
  %28 = load i32, ptr %27, align 4, !tbaa !40
  %29 = call i64 @get_raw_size(i32 noundef %22, i32 noundef %25, i32 noundef %28)
  %30 = icmp slt i64 %21, %29
  br i1 %30, label %31, label %33

31:                                               ; preds = %7
  %32 = load ptr, ptr %9, align 8, !tbaa !4
  call void (ptr, i32, ptr, ...) @av_log(ptr noundef %32, i32 noundef 16, ptr noundef @.str.2)
  store i32 -1094995529, ptr %8, align 4
  store i32 1, ptr %19, align 4
  br label %88

33:                                               ; preds = %7
  %34 = load i32, ptr %13, align 4, !tbaa !26
  %35 = load ptr, ptr %9, align 8, !tbaa !4
  %36 = getelementptr inbounds nuw %struct.AVCodecContext, ptr %35, i32 0, i32 23
  store i32 %34, ptr %36, align 8, !tbaa !41
  %37 = load ptr, ptr %9, align 8, !tbaa !4
  %38 = load ptr, ptr %10, align 8, !tbaa !9
  %39 = call i32 @ff_thread_get_buffer(ptr noundef %37, ptr noundef %38, i32 noundef 0)
  store i32 %39, ptr %18, align 4, !tbaa !26
  %40 = icmp slt i32 %39, 0
  br i1 %40, label %41, label %43

41:                                               ; preds = %33
  %42 = load i32, ptr %18, align 4, !tbaa !26
  store i32 %42, ptr %8, align 4
  store i32 1, ptr %19, align 4
  br label %88

43:                                               ; preds = %33
  %44 = load ptr, ptr %9, align 8, !tbaa !4
  %45 = load ptr, ptr %10, align 8, !tbaa !9
  %46 = load i32, ptr %15, align 4, !tbaa !26
  call void @do_vflip(ptr noundef %44, ptr noundef %45, i32 noundef %46)
  %47 = load ptr, ptr %10, align 8, !tbaa !9
  %48 = getelementptr inbounds nuw %struct.AVFrame, ptr %47, i32 0, i32 0
  %49 = getelementptr inbounds [8 x ptr], ptr %48, i64 0, i64 0
  %50 = load ptr, ptr %49, align 8, !tbaa !23
  store ptr %50, ptr %17, align 8, !tbaa !23
  store i32 0, ptr %16, align 4, !tbaa !26
  br label %51

51:                                               ; preds = %81, %43
  %52 = load i32, ptr %16, align 4, !tbaa !26
  %53 = load ptr, ptr %9, align 8, !tbaa !4
  %54 = getelementptr inbounds nuw %struct.AVCodecContext, ptr %53, i32 0, i32 19
  %55 = load i32, ptr %54, align 4, !tbaa !40
  %56 = icmp slt i32 %52, %55
  br i1 %56, label %57, label %84

57:                                               ; preds = %51
  %58 = load ptr, ptr %17, align 8, !tbaa !23
  %59 = load ptr, ptr %11, align 8, !tbaa !23
  %60 = load ptr, ptr %9, align 8, !tbaa !4
  %61 = getelementptr inbounds nuw %struct.AVCodecContext, ptr %60, i32 0, i32 18
  %62 = load i32, ptr %61, align 8, !tbaa !27
  %63 = load i32, ptr %14, align 4, !tbaa !26
  %64 = mul nsw i32 %62, %63
  %65 = sext i32 %64 to i64
  call void @llvm.memcpy.p0.p0.i64(ptr align 1 %58, ptr align 1 %59, i64 %65, i1 false)
  %66 = load ptr, ptr %9, align 8, !tbaa !4
  %67 = getelementptr inbounds nuw %struct.AVCodecContext, ptr %66, i32 0, i32 18
  %68 = load i32, ptr %67, align 8, !tbaa !27
  %69 = load i32, ptr %14, align 4, !tbaa !26
  %70 = mul nsw i32 %68, %69
  %71 = load ptr, ptr %11, align 8, !tbaa !23
  %72 = sext i32 %70 to i64
  %73 = getelementptr inbounds i8, ptr %71, i64 %72
  store ptr %73, ptr %11, align 8, !tbaa !23
  %74 = load ptr, ptr %10, align 8, !tbaa !9
  %75 = getelementptr inbounds nuw %struct.AVFrame, ptr %74, i32 0, i32 1
  %76 = getelementptr inbounds [8 x i32], ptr %75, i64 0, i64 0
  %77 = load i32, ptr %76, align 8, !tbaa !26
  %78 = load ptr, ptr %17, align 8, !tbaa !23
  %79 = sext i32 %77 to i64
  %80 = getelementptr inbounds i8, ptr %78, i64 %79
  store ptr %80, ptr %17, align 8, !tbaa !23
  br label %81

81:                                               ; preds = %57
  %82 = load i32, ptr %16, align 4, !tbaa !26
  %83 = add nsw i32 %82, 1
  store i32 %83, ptr %16, align 4, !tbaa !26
  br label %51, !llvm.loop !42

84:                                               ; preds = %51
  %85 = load ptr, ptr %9, align 8, !tbaa !4
  %86 = load ptr, ptr %10, align 8, !tbaa !9
  %87 = load i32, ptr %15, align 4, !tbaa !26
  call void @do_vflip(ptr noundef %85, ptr noundef %86, i32 noundef %87)
  store i32 0, ptr %8, align 4
  store i32 1, ptr %19, align 4
  br label %88

88:                                               ; preds = %84, %41, %31
  call void @llvm.lifetime.end.p0(i64 4, ptr %18) #9
  call void @llvm.lifetime.end.p0(i64 8, ptr %17) #9
  call void @llvm.lifetime.end.p0(i64 4, ptr %16) #9
  %89 = load i32, ptr %8, align 4
  ret i32 %89
}