; Function Attrs: nounwind uwtable
define internal fastcc range(i32 -2147483648, 1) i32 @dxtory_decode_v1_rgb(ptr noundef %0, ptr noundef %1, ptr noundef readonly captures(none) %2, i32 noundef range(i32 -2147483648, 2147483632) %3, i32 noundef range(i32 3, 40) %4, i32 noundef range(i32 2, 4) %5, i32 noundef range(i32 0, 2) %6) unnamed_addr #0 {
  %8 = sext i32 %3 to i64
  %9 = getelementptr inbounds nuw i8, ptr %0, i64 112
  %10 = load i32, ptr %9, align 8, !tbaa !17
  %11 = getelementptr inbounds nuw i8, ptr %0, i64 116
  %12 = load i32, ptr %11, align 4, !tbaa !31
  %13 = tail call fastcc i64 @get_raw_size(i32 noundef %4, i32 noundef %10, i32 noundef %12)
  %14 = icmp sgt i64 %13, %8
  br i1 %14, label %15, label %16

15:                                               ; preds = %7
  tail call void (ptr, i32, ptr, ...) @av_log(ptr noundef nonnull %0, i32 noundef 16, ptr noundef nonnull @.str.2) #11
  br label %39

16:                                               ; preds = %7
  %17 = getelementptr inbounds nuw i8, ptr %0, i64 136
  store i32 %4, ptr %17, align 8, !tbaa !32
  %18 = tail call i32 @ff_thread_get_buffer(ptr noundef nonnull %0, ptr noundef %1, i32 noundef 0) #11
  %19 = icmp slt i32 %18, 0
  br i1 %19, label %39, label %20

20:                                               ; preds = %16
  tail call fastcc void @do_vflip(ptr noundef nonnull %0, ptr noundef %1, i32 noundef %6)
  %21 = load i32, ptr %11, align 4, !tbaa !31
  %22 = icmp sgt i32 %21, 0
  br i1 %22, label %.lr.ph, label %._crit_edge

.lr.ph:                                           ; preds = %20
  %23 = load ptr, ptr %1, align 8, !tbaa !33
  %24 = getelementptr inbounds nuw i8, ptr %1, i64 64
  %.pre = load i32, ptr %9, align 8, !tbaa !17
  br label %25

25:                                               ; preds = %.lr.ph, %25
  %26 = phi i32 [ %.pre, %.lr.ph ], [ %29, %25 ]
  %.02935 = phi ptr [ %23, %.lr.ph ], [ %35, %25 ]
  %.03034 = phi i32 [ 0, %.lr.ph ], [ %36, %25 ]
  %.03133 = phi ptr [ %2, %.lr.ph ], [ %32, %25 ]
  %27 = mul nsw i32 %26, %5
  %28 = sext i32 %27 to i64
  tail call void @llvm.memcpy.p0.p0.i64(ptr align 1 %.02935, ptr align 1 %.03133, i64 %28, i1 false)
  %29 = load i32, ptr %9, align 8, !tbaa !17
  %30 = mul nsw i32 %29, %5
  %31 = sext i32 %30 to i64
  %32 = getelementptr inbounds i8, ptr %.03133, i64 %31
  %33 = load i32, ptr %24, align 8, !tbaa !34
  %34 = sext i32 %33 to i64
  %35 = getelementptr inbounds i8, ptr %.02935, i64 %34
  %36 = add nuw nsw i32 %.03034, 1
  %37 = load i32, ptr %11, align 4, !tbaa !31
  %38 = icmp slt i32 %36, %37
  br i1 %38, label %25, label %._crit_edge, !llvm.loop !47

._crit_edge:                                      ; preds = %25, %20
  tail call fastcc void @do_vflip(ptr noundef nonnull %0, ptr noundef nonnull %1, i32 noundef %6)
  br label %39

39:                                               ; preds = %16, %._crit_edge, %15
  %.0 = phi i32 [ -1094995529, %15 ], [ 0, %._crit_edge ], [ %18, %16 ]
  ret i32 %.0
}